; Function Attrs: mustprogress uwtable
define internal noundef i32 @_ZL24u_printf_pointer_handlerPK23u_printf_stream_handlerPvP13ULocaleBundlePK18u_printf_spec_infoPK9ufmt_args(ptr noundef readonly captures(none) %0, ptr noundef %1, ptr readnone captures(none) %2, ptr noundef %3, ptr noundef readonly captures(none) %4) #0 {
  %6 = alloca [1024 x i16], align 16
  %7 = alloca i32, align 4
  call void @llvm.lifetime.start.p0(i64 2048, ptr nonnull %6) #9
  call void @llvm.lifetime.start.p0(i64 4, ptr nonnull %7) #9
  store i32 1024, ptr %7, align 4, !tbaa !30
  %8 = load ptr, ptr %4, align 8, !tbaa !20
  call void @_Z12ufmt_ptou_77PDsPiPva(ptr noundef nonnull %6, ptr noundef nonnull %7, ptr noundef %8, i8 noundef signext 1)
  %9 = getelementptr inbounds nuw i8, ptr %0, i64 8
  %10 = load ptr, ptr %9, align 8, !tbaa !64
  %11 = load i32, ptr %7, align 4, !tbaa !30
  %12 = call noundef i32 %10(ptr noundef %1, ptr noundef %3, ptr noundef nonnull %6, i32 noundef %11)
  call void @llvm.lifetime.end.p0(i64 4, ptr nonnull %7) #9
  call void @llvm.lifetime.end.p0(i64 2048, ptr nonnull %6) #9
  ret i32 %12
}